; Function Attrs: mustprogress nounwind uwtable
define dso_local i32 @_ZNK5clang4Decl13getBodyRBraceEv(ptr noundef nonnull align 8 dereferenceable(33) %0) local_unnamed_addr #0 align 2 {
  %2 = alloca ptr, align 8
  %3 = getelementptr inbounds nuw i8, ptr %0, i64 28
  %4 = load i32, ptr %3, align 4
  %5 = and i32 %4, 127
  %6 = add nsw i32 %5, -37
  %7 = icmp ult i32 %6, -6
  br i1 %7, label %16, label %8

8:                                                ; preds = %1
  %9 = call noundef zeroext i1 @_ZNK5clang12FunctionDecl7hasBodyERPKS0_(ptr noundef nonnull align 8 dereferenceable(168) %0, ptr noundef nonnull align 8 dereferenceable(8) %2) #27
  br i1 %9, label %10, label %23

10:                                               ; preds = %8
  %11 = load ptr, ptr %2, align 8
  %12 = load ptr, ptr %11, align 8
  %13 = getelementptr inbounds i8, ptr %12, i64 16
  %14 = load ptr, ptr %13, align 8
  %15 = call i64 %14(ptr noundef nonnull align 8 dereferenceable(168) %11) #29
  %.sroa.19.0.extract.shift = lshr i64 %15, 32
  %.sroa.19.0.extract.trunc = trunc nuw i64 %.sroa.19.0.extract.shift to i32
  br label %23

16:                                               ; preds = %1
  %17 = load ptr, ptr %0, align 8
  %18 = getelementptr inbounds i8, ptr %17, i64 64
  %19 = load ptr, ptr %18, align 8
  %20 = tail call noundef ptr %19(ptr noundef nonnull align 8 dereferenceable(33) %0) #27
  %.not6 = icmp eq ptr %20, null
  br i1 %.not6, label %23, label %21

21:                                               ; preds = %16
  %22 = tail call i64 @_ZNK5clang4Stmt14getSourceRangeEv(ptr noundef nonnull align 8 dereferenceable(8) %20) #29
  %.sroa.1.0.extract.shift = lshr i64 %22, 32
  %.sroa.1.0.extract.trunc = trunc nuw i64 %.sroa.1.0.extract.shift to i32
  br label %23

23:                                               ; preds = %16, %8, %21, %10
  %.sroa.010.0 = phi i32 [ %.sroa.1.0.extract.trunc, %21 ], [ %.sroa.19.0.extract.trunc, %10 ], [ 0, %8 ], [ 0, %16 ]
  ret i32 %.sroa.010.0
}